(dp1
S'output'
p2
S"<type 'exceptions.RuntimeError'> unable to balance tag tr"
p3
sS'layer'
p4
S'/Users/patrickmathieu/Documents/web2py/applications/dining_hall_helper/controllers/default.py'
p5
sS'code'
p6
S'# -*- coding: utf-8 -*-\n# this file is released under public domain and you can use without limitations\n\n#########################################################################\n## This is a sample controller\n## - index is the default action of any application\n## - user is required for authentication and authorization\n## - download is for downloading files uploaded in the db (does streaming)\n## - api is an example of Hypermedia API support and access control\n#########################################################################\n\ndef index():\n    """\n    example action using the internationalization operator T and flash\n    rendered by views/default/index.html or views/generic.html\n\n    if you need a simple wiki simply replace the two lines below with:\n    return auth.wiki()\n    """\n    #response.flash = T("Welcome to web2py!")\n    \n    # Ratings for all DHs\n    query = (db.rating.DH == "cowell")\n    cowellRatings = db(query).select(db.rating.ALL)\n    query = (db.rating.DH == "crown")\n    crownRatings = db(query).select(db.rating.ALL)\n    query = (db.rating.DH == "porter")\n    porterRatings = db(query).select(db.rating.ALL)\n    query = (db.rating.DH == "eight")\n    eightRatings = db(query).select(db.rating.ALL)\n    query = (db.rating.DH == "nine")\n    nineRatings = db(query).select(db.rating.ALL)\n    \n    \n    \n    return dict(cowellRatings=cowellRatings, crownRatings=crownRatings, porterRatings=porterRatings,\n                eightRatings=eightRatings, nineRatings=nineRatings)\n\n\ndef user():\n    """\n    exposes:\n    http://..../[app]/default/user/login\n    http://..../[app]/default/user/logout\n    http://..../[app]/default/user/register\n    http://..../[app]/default/user/profile\n    http://..../[app]/default/user/retrieve_password\n    http://..../[app]/default/user/change_password\n    http://..../[app]/default/user/manage_users (requires membership in\n    use @auth.requires_login()\n        @auth.requires_membership(\'group name\')\n        @auth.requires_permission(\'read\',\'table name\',record_id)\n    to decorate functions that need access control\n    """\n    return dict(form=auth())\n\n\n@cache.action()\ndef download():\n    """\n    allows downloading of uploaded files\n    http://..../[app]/default/download/[filename]\n    """\n    return response.download(request, db)\n\n\ndef call():\n    """\n    exposes services. for example:\n    http://..../[app]/default/call/jsonrpc\n    decorate with @services.jsonrpc the functions to expose\n    supports xml, json, xmlrpc, jsonrpc, amfrpc, rss, csv\n    """\n    return service()\n\n\n@auth.requires_login() \ndef api():\n    """\n    this is example of API with access control\n    WEB2PY provides Hypermedia API (Collection+JSON) Experimental\n    """\n    from gluon.contrib.hypermedia import Collection\n    rules = {\n        \'<tablename>\': {\'GET\':{},\'POST\':{},\'PUT\':{},\'DELETE\':{}},\n        }\n    return Collection(db).process(request,response,rules)\n\n\n\n\ndef getSnaps():\n    # Snaps for requested DH\n    query = (db.snap.DH == request.args[0])\n    snaps = db(query).select(db.snap.ALL, orderby=~db.snap.helpful)\n    # Ratings for all DHs\n    query = (db.rating.DH == "cowell")\n    cowellRatings = db(query).select(db.rating.ALL)\n    query = (db.rating.DH == "crown")\n    crownRatings = db(query).select(db.rating.ALL)\n    query = (db.rating.DH == "porter")\n    porterRatings = db(query).select(db.rating.ALL)\n    query = (db.rating.DH == "eight")\n    eightRatings = db(query).select(db.rating.ALL)\n    query = (db.rating.DH == "nine")\n    nineRatings = db(query).select(db.rating.ALL)\n    \n    response.view = \'default/snaps.html\'\n    return dict(snaps = snaps, cowellRatings=cowellRatings, crownRatings=crownRatings,\n                porterRatings=porterRatings, eightRatings=eightRatings, nineRatings=nineRatings)\n\n\ndef submit():\n    # Here is how the input that goes to the iPhone camera looks (ios5 min?)\n    # <input type=file accept="image/*">\n    if(args[0]=="snap"): #not correct\n        form=FORM(\'Snap:\')\n    else: #not correct\n        form=FORM(\'Rating:\')\n    pass\n\ndef help():\n    query = (db.snap.picture == request.args[0])\n    snaps = db(query).select(db.snap.ALL)\n    newHelpful = snaps[0].helpful+1\n    db(query).update(helpful = newHelpful)\n    \n    \ndef scrape():\n    import requests\n    html = requests.get(\'http://nutrition.sa.ucsc.edu/menuSamp.asp?locationNum=20&locationName=Crown+Merrill&sName=&naFlag=\')\n    page = TAG(html.text)\n    items = []\n    for i in page.elements(\'.menusamprecipes, p.is\'): prices.append(i)\n    return dict(items = items)\n\nresponse._vars=response._caller(scrape)\n'
p7
sS'snapshot'
p8
(dp9
S'exception'
p10
(dp11
S'__hash__'
p12
S"<method-wrapper '__hash__' of exceptions.RuntimeError object>"
p13
sS'__setattr__'
p14
S"<method-wrapper '__setattr__' of exceptions.RuntimeError object>"
p15
sS'__reduce_ex__'
p16
S'<built-in method __reduce_ex__ of exceptions.RuntimeError object>'
p17
sS'__getslice__'
p18
S"<method-wrapper '__getslice__' of exceptions.RuntimeError object>"
p19
sS'__getitem__'
p20
S"<method-wrapper '__getitem__' of exceptions.RuntimeError object>"
p21
sS'__setstate__'
p22
S'<built-in method __setstate__ of exceptions.RuntimeError object>'
p23
sS'args'
p24
S"('unable to balance tag tr',)"
p25
sS'__reduce__'
p26
S'<built-in method __reduce__ of exceptions.RuntimeError object>'
p27
sS'__str__'
p28
S"<method-wrapper '__str__' of exceptions.RuntimeError object>"
p29
sS'__format__'
p30
S'<built-in method __format__ of exceptions.RuntimeError object>'
p31
sS'__getattribute__'
p32
S"<method-wrapper '__getattribute__' of exceptions.RuntimeError object>"
p33
sS'__class__'
p34
S"<type 'exceptions.RuntimeError'>"
p35
sS'__unicode__'
p36
S'<built-in method __unicode__ of exceptions.RuntimeError object>'
p37
sS'__delattr__'
p38
S"<method-wrapper '__delattr__' of exceptions.RuntimeError object>"
p39
sS'__subclasshook__'
p40
S'<built-in method __subclasshook__ of type object>'
p41
sS'__repr__'
p42
S"<method-wrapper '__repr__' of exceptions.RuntimeError object>"
p43
sS'__dict__'
p44
S'{}'
p45
sS'__sizeof__'
p46
S'<built-in method __sizeof__ of exceptions.RuntimeError object>'
p47
sS'__doc__'
p48
S"'Unspecified run-time error.'"
p49
sS'__init__'
p50
S"<method-wrapper '__init__' of exceptions.RuntimeError object>"
p51
sS'__new__'
p52
S'<built-in method __new__ of type object>'
p53
ssS'evalue'
p54
S'unable to balance tag tr'
p55
sS'request'
p56
cgluon.html
XML_unpickle
p57
(S'sT_\x00\x00<div><table><tr><td style="font-weight:bold;vertical-align:top;">ajax</td><td style="vertical-align:top;">:</td><td><div>False</div></td></tr><tr><td style="font-weight:bold;vertical-align:top;">application</td><td style="vertical-align:top;">:</td><td><div>dining_hall_helper</div></td></tr><tr><td style="font-weight:bold;vertical-align:top;">args</td><td style="vertical-align:top;">:</td><td><div><table></table></div></td></tr><tr><td style="font-weight:bold;vertical-align:top;">cid</td><td style="vertical-align:top;">:</td><td><div>None</div></td></tr><tr><td style="font-weight:bold;vertical-align:top;">client</td><td style="vertical-align:top;">:</td><td><div>127.0.0.1</div></td></tr><tr><td style="font-weight:bold;vertical-align:top;">controller</td><td style="vertical-align:top;">:</td><td><div>default</div></td></tr><tr><td style="font-weight:bold;vertical-align:top;">cookies</td><td style="vertical-align:top;">:</td><td><div><table><tr><td style="font-weight:bold;vertical-align:top;">session_id_admin</td><td style="vertical-align:top;">:</td><td><div>127.0.0.1-75d28f81-4a8d-4ec9-a0c5-0b1f1b181620<table><tr><td style="font-weight:bold;vertical-align:top;">comment</td><td style="vertical-align:top;">:</td><td><div></div></td></tr><tr><td style="font-weight:bold;vertical-align:top;">domain</td><td style="vertical-align:top;">:</td><td><div></div></td></tr><tr><td style="font-weight:bold;vertical-align:top;">expires</td><td style="vertical-align:top;">:</td><td><div></div></td></tr><tr><td style="font-weight:bold;vertical-align:top;">httponly</td><td style="vertical-align:top;">:</td><td><div></div></td></tr><tr><td style="font-weight:bold;vertical-align:top;">max-age</td><td style="vertical-align:top;">:</td><td><div></div></td></tr><tr><td style="font-weight:bold;vertical-align:top;">path</td><td style="vertical-align:top;">:</td><td><div></div></td></tr><tr><td style="font-weight:bold;vertical-align:top;">secure</td><td style="vertical-align:top;">:</td><td><div></div></td></tr><tr><td style="font-weight:bold;vertical-align:top;">version</td><td style="vertical-align:top;">:</td><td><div></div></td></tr></table></div></td></tr><tr><td style="font-weight:bold;vertical-align:top;">session_id_dining_hall_helper</td><td style="vertical-align:top;">:</td><td><div>127.0.0.1-02a41bd4-96f6-4cb2-b511-f42d166690e7<table><tr><td style="font-weight:bold;vertical-align:top;">comment</td><td style="vertical-align:top;">:</td><td><div></div></td></tr><tr><td style="font-weight:bold;vertical-align:top;">domain</td><td style="vertical-align:top;">:</td><td><div></div></td></tr><tr><td style="font-weight:bold;vertical-align:top;">expires</td><td style="vertical-align:top;">:</td><td><div></div></td></tr><tr><td style="font-weight:bold;vertical-align:top;">httponly</td><td style="vertical-align:top;">:</td><td><div></div></td></tr><tr><td style="font-weight:bold;vertical-align:top;">max-age</td><td style="vertical-align:top;">:</td><td><div></div></td></tr><tr><td style="font-weight:bold;vertical-align:top;">path</td><td style="vertical-align:top;">:</td><td><div></div></td></tr><tr><td style="font-weight:bold;vertical-align:top;">secure</td><td style="vertical-align:top;">:</td><td><div></div></td></tr><tr><td style="font-weight:bold;vertical-align:top;">version</td><td style="vertical-align:top;">:</td><td><div></div></td></tr></table></div></td></tr><tr><td style="font-weight:bold;vertical-align:top;">session_id_welcome</td><td style="vertical-align:top;">:</td><td><div>127.0.0.1-4bf438d7-db7e-4295-96aa-ad6889c55d6a<table><tr><td style="font-weight:bold;vertical-align:top;">comment</td><td style="vertical-align:top;">:</td><td><div></div></td></tr><tr><td style="font-weight:bold;vertical-align:top;">domain</td><td style="vertical-align:top;">:</td><td><div></div></td></tr><tr><td style="font-weight:bold;vertical-align:top;">expires</td><td style="vertical-align:top;">:</td><td><div></div></td></tr><tr><td style="font-weight:bold;vertical-align:top;">httponly</td><td style="vertical-align:top;">:</td><td><div></div></td></tr><tr><td style="font-weight:bold;vertical-align:top;">max-age</td><td style="vertical-align:top;">:</td><td><div></div></td></tr><tr><td style="font-weight:bold;vertical-align:top;">path</td><td style="vertical-align:top;">:</td><td><div></div></td></tr><tr><td style="font-weight:bold;vertical-align:top;">secure</td><td style="vertical-align:top;">:</td><td><div></div></td></tr><tr><td style="font-weight:bold;vertical-align:top;">version</td><td style="vertical-align:top;">:</td><td><div></div></td></tr></table></div></td></tr></table></div></td></tr><tr><td style="font-weight:bold;vertical-align:top;">env</td><td style="vertical-align:top;">:</td><td><div><table><tr><td style="font-weight:bold;vertical-align:top;">HTTP_ACCEPT</td><td style="vertical-align:top;">:</td><td><div>text/html,application/xhtml+xml,application/xml;q=0.9,image/webp,*/*;q=0.8</div></td></tr><tr><td style="font-weight:bold;vertical-align:top;">HTTP_ACCEPT_ENCODING</td><td style="vertical-align:top;">:</td><td><div>gzip, deflate, sdch</div></td></tr><tr><td style="font-weight:bold;vertical-align:top;">HTTP_ACCEPT_LANGUAGE</td><td style="vertical-align:top;">:</td><td><div>en-US,en;q=0.8</div></td></tr><tr><td style="font-weight:bold;vertical-align:top;">HTTP_CACHE_CONTROL</td><td style="vertical-align:top;">:</td><td><div>max-age=0</div></td></tr><tr><td style="font-weight:bold;vertical-align:top;">HTTP_CONNECTION</td><td style="vertical-align:top;">:</td><td><div>keep-alive</div></td></tr><tr><td style="font-weight:bold;vertical-align:top;">HTTP_COOKIE</td><td style="vertical-align:top;">:</td><td><div>session_id_welcome=127.0.0.1-4bf438d7-db7e-4295-96aa-ad6889c55d6a; session_id_dining_hall_helper=127.0.0.1-02a41bd4-96f6-4cb2-b511-f42d166690e7; session_id_admin=127.0.0.1-75d28f81-4a8d-4ec9-a0c5-0b1f1b181620</div></td></tr><tr><td style="font-weight:bold;vertical-align:top;">HTTP_HOST</td><td style="vertical-align:top;">:</td><td><div>127.0.0.1:8000</div></td></tr><tr><td style="font-weight:bold;vertical-align:top;">HTTP_USER_AGENT</td><td style="vertical-align:top;">:</td><td><div>Mozilla/5.0 (Macintosh; Intel Mac OS X 10_10_1) AppleWebKit/537.36 (KHTML, like Gecko) Chrome/39.0.2171.71 Safari/537.36</div></td></tr><tr><td style="font-weight:bold;vertical-align:top;">PATH_INFO</td><td style="vertical-align:top;">:</td><td><div>/dining_hall_helper/default/scrape.html</div></td></tr><tr><td style="font-weight:bold;vertical-align:top;">QUERY_STRING</td><td style="vertical-align:top;">:</td><td><div></div></td></tr><tr><td style="font-weight:bold;vertical-align:top;">REMOTE_ADDR</td><td style="vertical-align:top;">:</td><td><div>127.0.0.1</div></td></tr><tr><td style="font-weight:bold;vertical-align:top;">REMOTE_PORT</td><td style="vertical-align:top;">:</td><td><div>50706</div></td></tr><tr><td style="font-weight:bold;vertical-align:top;">REQUEST_METHOD</td><td style="vertical-align:top;">:</td><td><div>GET</div></td></tr><tr><td style="font-weight:bold;vertical-align:top;">SCRIPT_NAME</td><td style="vertical-align:top;">:</td><td><div></div></td></tr><tr><td style="font-weight:bold;vertical-align:top;">SERVER_NAME</td><td style="vertical-align:top;">:</td><td><div>Patricks-MacBook-Pro.local</div></td></tr><tr><td style="font-weight:bold;vertical-align:top;">SERVER_PORT</td><td style="vertical-align:top;">:</td><td><div>8000</div></td></tr><tr><td style="font-weight:bold;vertical-align:top;">SERVER_PROTOCOL</td><td style="vertical-align:top;">:</td><td><div>HTTP/1.1</div></td></tr><tr><td style="font-weight:bold;vertical-align:top;">SERVER_SOFTWARE</td><td style="vertical-align:top;">:</td><td><div>Rocket 1.2.6</div></td></tr><tr><td style="font-weight:bold;vertical-align:top;">app_folders</td><td style="vertical-align:top;">:</td><td><div>set([&#x27;/Users/patrickmathieu/Documents/web2py/applications/welcome/&#x27;, &#x27;/Users/patrickmathieu/Documents/web2py/applications/admin/&#x27;, &#x27;/Users/patrickmathieu/Documents/web2py/applications/dining_hall_helper/&#x27;])</div></td></tr><tr><td style="font-weight:bold;vertical-align:top;">applications_parent</td><td style="vertical-align:top;">:</td><td><div>/Users/patrickmathieu/Documents/web2py</div></td></tr><tr><td style="font-weight:bold;vertical-align:top;">cmd_args</td><td style="vertical-align:top;">:</td><td><div><table></table></div></td></tr><tr><td style="font-weight:bold;vertical-align:top;">cmd_options</td><td style="vertical-align:top;">:</td><td><div>&lt;Values at 0x1066db440: {&#x27;verbose&#x27;: False, &#x27;ip&#x27;: &#x27;127.0.0.1&#x27;, &#x27;debuglevel&#x27;: 30, &#x27;with_scheduler&#x27;: False, &#x27;ips&#x27;: [&#x27;10.0.0.8&#x27;, &#x27;2601:9:2580:3af:e6ce:8fff:fe3f:ef86&#x27;, &#x27;fe80::e6ce:8fff:fe3f:ef86%en1&#x27;, &#x27;2601:9:2580:3af:ad98:8b79:1acc:3f66&#x27;], &#x27;shutdown_timeout&#x27;: 5, &#x27;taskbar&#x27;: False, &#x27;with_coverage&#x27;: False, &#x27;scheduler_groups&#x27;: None, &#x27;port&#x27;: 8000, &#x27;maxthreads&#x27;: None, &#x27;softcron&#x27;: False, &#x27;server_name&#x27;: &#x27;Patricks-MacBook-Pro.local&#x27;, &#x27;bpython&#x27;: False, &#x27;nogui&#x27;: False, &#x27;pid_filename&#x27;: &#x27;httpserver.pid&#x27;, &#x27;extcron&#x27;: False, &#x27;runcron&#x27;: False, &#x27;run_system_tests&#x27;: False, &#x27;test&#x27;: None, &#x27;folder&#x27;: &#x27;/Users/patrickmathieu/Documents/web2py&#x27;, &#x27;config&#x27;: &#x27;&#x27;, &#x27;minthreads&#x27;: None, &#x27;shell&#x27;: None, &#x27;run&#x27;: &#x27;&#x27;, &#x27;log_filename&#x27;: &#x27;httpserver.log&#x27;, &#x27;profiler_dir&#x27;: None, &#x27;args&#x27;: [&#x27;&#x27;], &#x27;socket_timeout&#x27;: 5, &#x27;ssl_ca_certificate&#x27;: None, &#x27;scheduler&#x27;: None, &#x27;interfaces&#x27;: None, &#x27;ssl_private_key&#x27;: &#x27;&#x27;, &#x27;gae&#x27;: None, &#x27;password&#x27;: &#x27;&lt;ask&gt;&#x27;, &#x27;request_queue_size&#x27;: 5, &#x27;ssl_certificate&#x27;: &#x27;&#x27;, &#x27;cronjob&#x27;: False, &#x27;numthreads&#x27;: None, &#x27;quiet&#x27;: False, &#x27;import_models&#x27;: False, &#x27;timeout&#x27;: 10, &#x27;plain&#x27;: False, &#x27;nobanner&#x27;: False}&gt;</div></td></tr><tr><td style="font-weight:bold;vertical-align:top;">db_sessions</td><td style="vertical-align:top;">:</td><td><div>set([])</div></td></tr><tr><td style="font-weight:bold;vertical-align:top;">debugging</td><td style="vertical-align:top;">:</td><td><div>True</div></td></tr><tr><td style="font-weight:bold;vertical-align:top;">gluon_parent</td><td style="vertical-align:top;">:</td><td><div>/Users/patrickmathieu/Documents/web2py</div></td></tr><tr><td style="font-weight:bold;vertical-align:top;">http_accept</td><td style="vertical-align:top;">:</td><td><div>text/html,application/xhtml+xml,application/xml;q=0.9,image/webp,*/*;q=0.8</div></td></tr><tr><td style="font-weight:bold;vertical-align:top;">http_accept_encoding</td><td style="vertical-align:top;">:</td><td><div>gzip, deflate, sdch</div></td></tr><tr><td style="font-weight:bold;vertical-align:top;">http_accept_language</td><td style="vertical-align:top;">:</td><td><div>en-US,en;q=0.8</div></td></tr><tr><td style="font-weight:bold;vertical-align:top;">http_cache_control</td><td style="vertical-align:top;">:</td><td><div>max-age=0</div></td></tr><tr><td style="font-weight:bold;vertical-align:top;">http_connection</td><td style="vertical-align:top;">:</td><td><div>keep-alive</div></td></tr><tr><td style="font-weight:bold;vertical-align:top;">http_cookie</td><td style="vertical-align:top;">:</td><td><div>session_id_welcome=127.0.0.1-4bf438d7-db7e-4295-96aa-ad6889c55d6a; session_id_dining_hall_helper=127.0.0.1-02a41bd4-96f6-4cb2-b511-f42d166690e7; session_id_admin=127.0.0.1-75d28f81-4a8d-4ec9-a0c5-0b1f1b181620</div></td></tr><tr><td style="font-weight:bold;vertical-align:top;">http_host</td><td style="vertical-align:top;">:</td><td><div>127.0.0.1:8000</div></td></tr><tr><td style="font-weight:bold;vertical-align:top;">http_user_agent</td><td style="vertical-align:top;">:</td><td><div>Mozilla/5.0 (Macintosh; Intel Mac OS X 10_10_1) AppleWebKit/537.36 (KHTML, like Gecko) Chrome/39.0.2171.71 Safari/537.36</div></td></tr><tr><td style="font-weight:bold;vertical-align:top;">is_jython</td><td style="vertical-align:top;">:</td><td><div>False</div></td></tr><tr><td style="font-weight:bold;vertical-align:top;">is_pypy</td><td style="vertical-align:top;">:</td><td><div>False</div></td></tr><tr><td style="font-weight:bold;vertical-align:top;">is_source</td><td style="vertical-align:top;">:</td><td><div>True</div></td></tr><tr><td style="font-weight:bold;vertical-align:top;">local_hosts</td><td style="vertical-align:top;">:</td><td><div><table><tr><td><div>2601:9:2580:3af:ad98:8b79:1acc:3f66</div></td></tr><tr><td><div>2601:9:2580:3af:e6ce:8fff:fe3f:ef86</div></td></tr><tr><td><div>Patricks-MacBook-Pro.local</div></td></tr><tr><td><div>::ffff:127.0.0.1</div></td></tr><tr><td><div>::1</div></td></tr><tr><td><div>fe80::e6ce:8fff:fe3f:ef86%en1</div></td></tr><tr><td><div>10.0.0.8</div></td></tr><tr><td><div>127.0.0.1</div></td></tr></table></div></td></tr><tr><td style="font-weight:bold;vertical-align:top;">path_info</td><td style="vertical-align:top;">:</td><td><div>/dining_hall_helper/default/scrape.html</div></td></tr><tr><td style="font-weight:bold;vertical-align:top;">query_string</td><td style="vertical-align:top;">:</td><td><div></div></td></tr><tr><td style="font-weight:bold;vertical-align:top;">remote_addr</td><td style="vertical-align:top;">:</td><td><div>127.0.0.1</div></td></tr><tr><td style="font-weight:bold;vertical-align:top;">remote_port</td><td style="vertical-align:top;">:</td><td><div>50706</div></td></tr><tr><td style="font-weight:bold;vertical-align:top;">request_method</td><td style="vertical-align:top;">:</td><td><div>GET</div></td></tr><tr><td style="font-weight:bold;vertical-align:top;">request_uri</td><td style="vertical-align:top;">:</td><td><div>/dining_hall_helper/default/scrape.html</div></td></tr><tr><td style="font-weight:bold;vertical-align:top;">script_name</td><td style="vertical-align:top;">:</td><td><div></div></td></tr><tr><td style="font-weight:bold;vertical-align:top;">server_name</td><td style="vertical-align:top;">:</td><td><div>Patricks-MacBook-Pro.local</div></td></tr><tr><td style="font-weight:bold;vertical-align:top;">server_port</td><td style="vertical-align:top;">:</td><td><div>8000</div></td></tr><tr><td style="font-weight:bold;vertical-align:top;">server_protocol</td><td style="vertical-align:top;">:</td><td><div>HTTP/1.1</div></td></tr><tr><td style="font-weight:bold;vertical-align:top;">server_software</td><td style="vertical-align:top;">:</td><td><div>Rocket 1.2.6</div></td></tr><tr><td style="font-weight:bold;vertical-align:top;">web2py_path</td><td style="vertical-align:top;">:</td><td><div>/Users/patrickmathieu/Documents/web2py</div></td></tr><tr><td style="font-weight:bold;vertical-align:top;">web2py_version</td><td style="vertical-align:top;">:</td><td><div>2.9.11-stable+timestamp.2014.09.15.23.35.11</div></td></tr><tr><td style="font-weight:bold;vertical-align:top;">wsgi.errors</td><td style="vertical-align:top;">:</td><td><div>&lt;open file &#x27;&lt;stderr&gt;&#x27;, mode &#x27;w&#x27; at 0x1057c01e0&gt;</div></td></tr><tr><td style="font-weight:bold;vertical-align:top;">wsgi.file_wrapper</td><td style="vertical-align:top;">:</td><td><div>&lt;class wsgiref.util.FileWrapper at 0x106433db8&gt;</div></td></tr><tr><td style="font-weight:bold;vertical-align:top;">wsgi.input</td><td style="vertical-align:top;">:</td><td><div>&lt;socket._fileobject object at 0x110a56b50&gt;</div></td></tr><tr><td style="font-weight:bold;vertical-align:top;">wsgi.multiprocess</td><td style="vertical-align:top;">:</td><td><div>False</div></td></tr><tr><td style="font-weight:bold;vertical-align:top;">wsgi.multithread</td><td style="vertical-align:top;">:</td><td><div>True</div></td></tr><tr><td style="font-weight:bold;vertical-align:top;">wsgi.run_once</td><td style="vertical-align:top;">:</td><td><div>False</div></td></tr><tr><td style="font-weight:bold;vertical-align:top;">wsgi.url_scheme</td><td style="vertical-align:top;">:</td><td><div>http</div></td></tr><tr><td style="font-weight:bold;vertical-align:top;">wsgi.version</td><td style="vertical-align:top;">:</td><td><div><table><tr><td><div>1</div></td></tr><tr><td><div>0</div></td></tr></table></div></td></tr><tr><td style="font-weight:bold;vertical-align:top;">wsgi_errors</td><td style="vertical-align:top;">:</td><td><div>&lt;open file &#x27;&lt;stderr&gt;&#x27;, mode &#x27;w&#x27; at 0x1057c01e0&gt;</div></td></tr><tr><td style="font-weight:bold;vertical-align:top;">wsgi_file_wrapper</td><td style="vertical-align:top;">:</td><td><div>&lt;class wsgiref.util.FileWrapper at 0x106433db8&gt;</div></td></tr><tr><td style="font-weight:bold;vertical-align:top;">wsgi_input</td><td style="vertical-align:top;">:</td><td><div>&lt;socket._fileobject object at 0x110a56b50&gt;</div></td></tr><tr><td style="font-weight:bold;vertical-align:top;">wsgi_multiprocess</td><td style="vertical-align:top;">:</td><td><div>False</div></td></tr><tr><td style="font-weight:bold;vertical-align:top;">wsgi_multithread</td><td style="vertical-align:top;">:</td><td><div>True</div></td></tr><tr><td style="font-weight:bold;vertical-align:top;">wsgi_run_once</td><td style="vertical-align:top;">:</td><td><div>False</div></td></tr><tr><td style="font-weight:bold;vertical-align:top;">wsgi_url_scheme</td><td style="vertical-align:top;">:</td><td><div>http</div></td></tr><tr><td style="font-weight:bold;vertical-align:top;">wsgi_version</td><td style="vertical-align:top;">:</td><td><div><table><tr><td><div>1</div></td></tr><tr><td><div>0</div></td></tr></table></div></td></tr></table></div></td></tr><tr><td style="font-weight:bold;vertical-align:top;">extension</td><td style="vertical-align:top;">:</td><td><div>html</div></td></tr><tr><td style="font-weight:bold;vertical-align:top;">folder</td><td style="vertical-align:top;">:</td><td><div>/Users/patrickmathieu/Documents/web2py/applications/dining_hall_helper/</div></td></tr><tr><td style="font-weight:bold;vertical-align:top;">function</td><td style="vertical-align:top;">:</td><td><div>scrape</div></td></tr><tr><td style="font-weight:bold;vertical-align:top;">global_settings</td><td style="vertical-align:top;">:</td><td><div><table><tr><td style="font-weight:bold;vertical-align:top;">app_folders</td><td style="vertical-align:top;">:</td><td><div>set([&#x27;/Users/patrickmathieu/Documents/web2py/applications/welcome/&#x27;, &#x27;/Users/patrickmathieu/Documents/web2py/applications/admin/&#x27;, &#x27;/Users/patrickmathieu/Documents/web2py/applications/dining_hall_helper/&#x27;])</div></td></tr><tr><td style="font-weight:bold;vertical-align:top;">applications_parent</td><td style="vertical-align:top;">:</td><td><div>/Users/patrickmathieu/Documents/web2py</div></td></tr><tr><td style="font-weight:bold;vertical-align:top;">cmd_args</td><td style="vertical-align:top;">:</td><td><div><table></table></div></td></tr><tr><td style="font-weight:bold;vertical-align:top;">cmd_options</td><td style="vertical-align:top;">:</td><td><div>&lt;Values at 0x1066db440: {&#x27;verbose&#x27;: False, &#x27;ip&#x27;: &#x27;127.0.0.1&#x27;, &#x27;debuglevel&#x27;: 30, &#x27;with_scheduler&#x27;: False, &#x27;ips&#x27;: [&#x27;10.0.0.8&#x27;, &#x27;2601:9:2580:3af:e6ce:8fff:fe3f:ef86&#x27;, &#x27;fe80::e6ce:8fff:fe3f:ef86%en1&#x27;, &#x27;2601:9:2580:3af:ad98:8b79:1acc:3f66&#x27;], &#x27;shutdown_timeout&#x27;: 5, &#x27;taskbar&#x27;: False, &#x27;with_coverage&#x27;: False, &#x27;scheduler_groups&#x27;: None, &#x27;port&#x27;: 8000, &#x27;maxthreads&#x27;: None, &#x27;softcron&#x27;: False, &#x27;server_name&#x27;: &#x27;Patricks-MacBook-Pro.local&#x27;, &#x27;bpython&#x27;: False, &#x27;nogui&#x27;: False, &#x27;pid_filename&#x27;: &#x27;httpserver.pid&#x27;, &#x27;extcron&#x27;: False, &#x27;runcron&#x27;: False, &#x27;run_system_tests&#x27;: False, &#x27;test&#x27;: None, &#x27;folder&#x27;: &#x27;/Users/patrickmathieu/Documents/web2py&#x27;, &#x27;config&#x27;: &#x27;&#x27;, &#x27;minthreads&#x27;: None, &#x27;shell&#x27;: None, &#x27;run&#x27;: &#x27;&#x27;, &#x27;log_filename&#x27;: &#x27;httpserver.log&#x27;, &#x27;profiler_dir&#x27;: None, &#x27;args&#x27;: [&#x27;&#x27;], &#x27;socket_timeout&#x27;: 5, &#x27;ssl_ca_certificate&#x27;: None, &#x27;scheduler&#x27;: None, &#x27;interfaces&#x27;: None, &#x27;ssl_private_key&#x27;: &#x27;&#x27;, &#x27;gae&#x27;: None, &#x27;password&#x27;: &#x27;&lt;ask&gt;&#x27;, &#x27;request_queue_size&#x27;: 5, &#x27;ssl_certificate&#x27;: &#x27;&#x27;, &#x27;cronjob&#x27;: False, &#x27;numthreads&#x27;: None, &#x27;quiet&#x27;: False, &#x27;import_models&#x27;: False, &#x27;timeout&#x27;: 10, &#x27;plain&#x27;: False, &#x27;nobanner&#x27;: False}&gt;</div></td></tr><tr><td style="font-weight:bold;vertical-align:top;">db_sessions</td><td style="vertical-align:top;">:</td><td><div>set([])</div></td></tr><tr><td style="font-weight:bold;vertical-align:top;">debugging</td><td style="vertical-align:top;">:</td><td><div>True</div></td></tr><tr><td style="font-weight:bold;vertical-align:top;">gluon_parent</td><td style="vertical-align:top;">:</td><td><div>/Users/patrickmathieu/Documents/web2py</div></td></tr><tr><td style="font-weight:bold;vertical-align:top;">is_jython</td><td style="vertical-align:top;">:</td><td><div>False</div></td></tr><tr><td style="font-weight:bold;vertical-align:top;">is_pypy</td><td style="vertical-align:top;">:</td><td><div>False</div></td></tr><tr><td style="font-weight:bold;vertical-align:top;">is_source</td><td style="vertical-align:top;">:</td><td><div>True</div></td></tr><tr><td style="font-weight:bold;vertical-align:top;">local_hosts</td><td style="vertical-align:top;">:</td><td><div><table><tr><td><div>2601:9:2580:3af:ad98:8b79:1acc:3f66</div></td></tr><tr><td><div>2601:9:2580:3af:e6ce:8fff:fe3f:ef86</div></td></tr><tr><td><div>Patricks-MacBook-Pro.local</div></td></tr><tr><td><div>::ffff:127.0.0.1</div></td></tr><tr><td><div>::1</div></td></tr><tr><td><div>fe80::e6ce:8fff:fe3f:ef86%en1</div></td></tr><tr><td><div>10.0.0.8</div></td></tr><tr><td><div>127.0.0.1</div></td></tr></table></div></td></tr><tr><td style="font-weight:bold;vertical-align:top;">web2py_version</td><td style="vertical-align:top;">:</td><td><div>2.9.11-stable+timestamp.2014.09.15.23.35.11</div></td></tr></table></div></td></tr><tr><td style="font-weight:bold;vertical-align:top;">is_https</td><td style="vertical-align:top;">:</td><td><div>False</div></td></tr><tr><td style="font-weight:bold;vertical-align:top;">is_local</td><td style="vertical-align:top;">:</td><td><div>True</div></td></tr><tr><td style="font-weight:bold;vertical-align:top;">is_restful</td><td style="vertical-align:top;">:</td><td><div>False</div></td></tr><tr><td style="font-weight:bold;vertical-align:top;">is_sheduler</td><td style="vertical-align:top;">:</td><td><div>None</div></td></tr><tr><td style="font-weight:bold;vertical-align:top;">is_shell</td><td style="vertical-align:top;">:</td><td><div>None</div></td></tr><tr><td style="font-weight:bold;vertical-align:top;">now</td><td style="vertical-align:top;">:</td><td><div>datetime.datetime(2014, 12, 4, 3, 36, 50, 658428)</div></td></tr><tr><td style="font-weight:bold;vertical-align:top;">raw_args</td><td style="vertical-align:top;">:</td><td><div></div></td></tr><tr><td style="font-weight:bold;vertical-align:top;">raw_extension</td><td style="vertical-align:top;">:</td><td><div>html</div></td></tr><tr><td style="font-weight:bold;vertical-align:top;">url</td><td style="vertical-align:top;">:</td><td><div>/dining_hall_helper/default/scrape.html</div></td></tr><tr><td style="font-weight:bold;vertical-align:top;">utcnow</td><td style="vertical-align:top;">:</td><td><div>datetime.datetime(2014, 12, 4, 11, 36, 50, 658443)</div></td></tr><tr><td style="font-weight:bold;vertical-align:top;">uuid</td><td style="vertical-align:top;">:</td><td><div>dining_hall_helper/127.0.0.1.2014-12-04.03-36-50.83013b4c-f2a0-4f1d-afdc-6f63d259faa8</div></td></tr><tr><td style="font-weight:bold;vertical-align:top;">wsgi</td><td style="vertical-align:top;">:</td><td><div>&lt;gluon.main.LazyWSGI object at 0x1108f7850&gt;</div></td></tr></table></div>'
tRp58
sS'frames'
p59
(lp60
(dp61
S'file'
p62
S'/Users/patrickmathieu/Documents/web2py/gluon/restricted.py'
p63
sS'dump'
p64
(dp65
S'environment'
p66
S"{'A': <class 'gluon.html.A'>, 'ANY_OF': <class 'gluon.validators.ANY_OF'>, 'ASSIGNJS': <function ASSIGNJS>, 'Auth': <class 'gluon.tools.Auth'>, 'B': <class 'gluon.html.B'>, 'BEAUTIFY': <class 'gluon.html.BEAUTIFY'>, 'BODY': <class 'gluon.html.BODY'>, 'BR': <class 'gluon.html.BR'>, 'BUTTON': <class 'gluon.html.BUTTON'>, 'CAT': <class 'gluon.html.CAT'>, ...}"
p67
sS'ccode'
p68
S'<code object <module> at 0x10d14ff30, file "/Use...ing_hall_helper/controllers/default.py", line 12>'
p69
ssS'lnum'
p70
I224
sS'lines'
p71
(dp72
I224
S'        exec ccode in environment'
p73
sI225
S'    except HTTP:'
p74
sI226
S'        raise'
p75
sI227
S'    except RestrictedError:'
p76
sI228
S'        # do not encapsulate (obfuscate) the original RestrictedError'
p77
sI219
S'    try:'
p78
sI220
S'        if isinstance(code, types.CodeType):'
p79
sI221
S'            ccode = code'
p80
sI222
S'        else:'
p81
sI223
S'            ccode = compile2(code, layer)'
p82
ssS'call'
p83
S"(code='# -*- coding: utf-8 -*-\\n# this file is released ... items)\\n\\nresponse._vars=response._caller(scrape)\\n', environment={'A': <class 'gluon.html.A'>, 'ANY_OF': <class 'gluon.validators.ANY_OF'>, 'ASSIGNJS': <function ASSIGNJS>, 'Auth': <class 'gluon.tools.Auth'>, 'B': <class 'gluon.html.B'>, 'BEAUTIFY': <class 'gluon.html.BEAUTIFY'>, 'BODY': <class 'gluon.html.BODY'>, 'BR': <class 'gluon.html.BR'>, 'BUTTON': <class 'gluon.html.BUTTON'>, 'CAT': <class 'gluon.html.CAT'>, ...}, layer='/Users/patrickmathieu/Documents/web2py/applications/dining_hall_helper/controllers/default.py')"
p84
sS'func'
p85
S'restricted'
p86
sa(dp87
g62
S'/Users/patrickmathieu/Documents/web2py/applications/dining_hall_helper/controllers/default.py'
p88
sg64
(dp89
sg70
I137
sg71
(dp90
I128
S''
sI129
S'def scrape():'
p91
sI130
S'    import requests'
p92
sI131
S"    html = requests.get('http://nutrition.sa.ucsc.edu/menuSamp.asp?locationNum=20&locationName=Crown+Merrill&sName=&naFlag=')"
p93
sI132
S'    page = TAG(html.text)'
p94
sI133
S'    items = []'
p95
sI134
S"    for i in page.elements('.menusamprecipes, p.is'): prices.append(i)"
p96
sI135
S'    return dict(items = items)'
p97
sI126
S'    db(query).update(helpful = newHelpful)'
p98
sI127
S''
ssg83
S'()'
p99
sg85
S'<module>'
p100
sa(dp101
g62
S'/Users/patrickmathieu/Documents/web2py/gluon/globals.py'
p102
sg64
(dp103
S'self'
p104
S'undefined'
p105
sS'f'
S'<function scrape>'
p106
ssg70
I392
sg71
(dp107
I387
S"        self.flash = ''            # used by the default view layout"
p108
sI388
S'        self.meta = Storage()      # used by web2py_ajax.html'
p109
sI389
S'        self.menu = []             # used by the default view layout'
p110
sI390
S'        self.files = []            # used by web2py_ajax.html'
p111
sI391
S'        self._vars = None'
p112
sI392
S'        self._caller = lambda f: f()'
p113
sI393
S'        self._view_environment = None'
p114
sI394
S'        self._custom_commit = None'
p115
sI395
S'        self._custom_rollback = None'
p116
sI396
S"        self.generic_patterns = ['*']"
p117
ssg83
S'(f=<function scrape>)'
p118
sg85
S'<lambda>'
p119
sa(dp120
g62
S'/Users/patrickmathieu/Documents/web2py/applications/dining_hall_helper/controllers/default.py'
p121
sg64
(dp122
S'global TAG'
p123
S'<gluon.html.__TAG__ object>'
p124
sS'html'
p125
S'<Response [200]>'
p126
sS'page'
p127
g105
sS'html.text'
p128
S"u'\\r\\n\\r\\n<!-- The following is required by Auro...urora Information Systems Required Text -->\\n\\n '"
p129
ssg70
I132
sg71
(dp130
I128
S''
sI129
S'def scrape():'
p131
sI130
S'    import requests'
p132
sI131
S"    html = requests.get('http://nutrition.sa.ucsc.edu/menuSamp.asp?locationNum=20&locationName=Crown+Merrill&sName=&naFlag=')"
p133
sI132
S'    page = TAG(html.text)'
p134
sI133
S'    items = []'
p135
sI134
S"    for i in page.elements('.menusamprecipes, p.is'): prices.append(i)"
p136
sI135
S'    return dict(items = items)'
p137
sI126
S'    db(query).update(helpful = newHelpful)'
p138
sI127
S''
ssg83
S'()'
p139
sg85
S'scrape'
p140
sa(dp141
g62
S'/Users/patrickmathieu/Documents/web2py/gluon/html.py'
p142
sg64
(dp143
S'decoder.decoder'
p144
S'<function decoder>'
p145
sS'global decoder'
p146
S"<module 'gluon.decoder' from '/Users/patrickmathieu/Documents/web2py/gluon/decoder.pyc'>"
p147
sS'global web2pyHTMLParser'
p148
S'<class gluon.html.web2pyHTMLParser>'
p149
sS'html'
p150
S"u'\\r\\n\\r\\n<!-- The following is required by Auro...urora Information Systems Required Text -->\\n\\n '"
p151
sS').tree'
p152
g105
ssg70
I1288
sg71
(dp153
I1283
S'        if isinstance(name, unicode):'
p154
sI1284
S"            name = name.encode('utf-8')"
p155
sI1285
S'        return lambda *a,**b: __tag_div__(name,*a,**b)'
p156
sI1286
S''
sI1287
S'    def __call__(self, html):'
p157
sI1288
S'        return web2pyHTMLParser(decoder.decoder(html)).tree'
p158
sI1289
S''
sI1290
S'TAG = __TAG__()'
p159
sI1291
S''
sI1292
S''
ssg83
S"(self=<gluon.html.__TAG__ object>, html=u'\\r\\n\\r\\n<!-- The following is required by Auro...urora Information Systems Required Text -->\\n\\n ')"
p160
sg85
S'__call__'
p161
sa(dp162
g62
S'/Users/patrickmathieu/Documents/web2py/gluon/html.py'
p163
sg64
(dp164
S'self.feed'
p165
S'<bound method web2pyHTMLParser.feed of <gluon.html.web2pyHTMLParser instance>>'
p166
sS'self'
p167
S'<gluon.html.web2pyHTMLParser instance>'
p168
sS'text'
p169
S"'\\r\\n\\r\\n<!-- The following is required by Aurora Inf...f Aurora Information Systems Required Text -->\\n\\n '"
p170
ssg70
I2678
sg71
(dp171
I2673
S'        HTMLParser.__init__(self)'
p172
sI2674
S"        self.tree = self.parent = TAG['']()"
p173
sI2675
S'        self.closed = closed'
p174
sI2676
S'        self.tags = [x for x in __all__ if isinstance(eval(x), DIV)]'
p175
sI2677
S'        self.last = None'
p176
sI2678
S'        self.feed(text)'
p177
sI2679
S''
sI2680
S'    def handle_starttag(self, tagname, attrs):'
p178
sI2681
S'        if tagname.upper() in self.tags:'
p179
sI2682
S'            tag = eval(tagname.upper())'
p180
ssg83
S"(self=<gluon.html.web2pyHTMLParser instance>, text='\\r\\n\\r\\n<!-- The following is required by Aurora Inf...f Aurora Information Systems Required Text -->\\n\\n ', closed=('input', 'link'))"
p181
sg85
g50
sa(dp182
g62
S'/System/Library/Frameworks/Python.framework/Versions/2.7/lib/python2.7/HTMLParser.py'
p183
sg64
(dp184
S'self.goahead'
p185
S'<bound method web2pyHTMLParser.goahead of <gluon.html.web2pyHTMLParser instance>>'
p186
sS'self'
p187
S'<gluon.html.web2pyHTMLParser instance>'
p188
ssg70
I114
sg71
(dp189
I109
S''
sI110
S'        Call this as often as you want, with as little or as much text'
p190
sI111
S"        as you want (may include '\\n')."
p191
sI112
S'        """'
p192
sI113
S'        self.rawdata = self.rawdata + data'
p193
sI114
S'        self.goahead(0)'
p194
sI115
S''
sI116
S'    def close(self):'
p195
sI117
S'        """Handle any buffered data."""'
p196
sI118
S'        self.goahead(1)'
p197
ssg83
S"(self=<gluon.html.web2pyHTMLParser instance>, data='\\r\\n\\r\\n<!-- The following is required by Aurora Inf...f Aurora Information Systems Required Text -->\\n\\n ')"
p198
sg85
S'feed'
p199
sa(dp200
g62
S'/System/Library/Frameworks/Python.framework/Versions/2.7/lib/python2.7/HTMLParser.py'
p201
sg64
(dp202
S'i'
S'97777'
p203
sS'k'
S'97761'
p204
sS'self.parse_endtag'
p205
S'<bound method web2pyHTMLParser.parse_endtag of <gluon.html.web2pyHTMLParser instance>>'
p206
sS'self'
p207
S'<gluon.html.web2pyHTMLParser instance>'
p208
ssg70
I160
sg71
(dp209
I160
S'                    k = self.parse_endtag(i)'
p210
sI161
S'                elif startswith("<!--", i):'
p211
sI162
S'                    k = self.parse_comment(i)'
p212
sI163
S'                elif startswith("<?", i):'
p213
sI164
S'                    k = self.parse_pi(i)'
p214
sI155
S'            startswith = rawdata.startswith'
p215
sI156
S"            if startswith('<', i):"
p216
sI157
S'                if starttagopen.match(rawdata, i): # < + letter'
p217
sI158
S'                    k = self.parse_starttag(i)'
p218
sI159
S'                elif startswith("</", i):'
p219
ssg83
S'(self=<gluon.html.web2pyHTMLParser instance>, end=0)'
p220
sg85
S'goahead'
p221
sa(dp222
g62
S'/System/Library/Frameworks/Python.framework/Versions/2.7/lib/python2.7/HTMLParser.py'
p223
sg64
(dp224
S'self'
p225
S'<gluon.html.web2pyHTMLParser instance>'
p226
sS'elem'
p227
S"'tr'"
p228
sS'self.handle_endtag'
p229
S'<bound method web2pyHTMLParser.handle_endtag of <gluon.html.web2pyHTMLParser instance>>'
p230
ssg70
I398
sg71
(dp231
I393
S'        if self.cdata_elem is not None:'
p232
sI394
S'            if elem != self.cdata_elem:'
p233
sI395
S'                self.handle_data(rawdata[i:gtpos])'
p234
sI396
S'                return gtpos'
p235
sI397
S''
sI398
S'        self.handle_endtag(elem)'
p236
sI399
S'        self.clear_cdata_mode()'
p237
sI400
S'        return gtpos'
p238
sI401
S''
sI402
S'    # Overridable -- finish processing of start+end tag: <tag.../>'
p239
ssg83
S'(self=<gluon.html.web2pyHTMLParser instance>, i=97777)'
p240
sg85
S'parse_endtag'
p241
sa(dp242
g62
S'/Users/patrickmathieu/Documents/web2py/gluon/html.py'
p243
sg64
(dp244
S'builtinRuntimeError'
p245
S"<type 'exceptions.RuntimeError'>"
p246
sS'tagname'
p247
S"'tr'"
p248
ssg70
I2722
sg71
(dp249
I2720
S'                self.parent = self.parent.parent'
p250
sI2721
S'            except:'
p251
sI2722
S'                raise RuntimeError("unable to balance tag %s" % tagname)'
p252
sI2723
S'            if parent_tagname[:len(tagname)] == tagname: break'
p253
sI2724
S''
sI2725
S''
sI2726
S'def markdown_serializer(text, tag=None, attr=None):'
p254
sI2717
S'        while True:'
p255
sI2718
S'            try:'
p256
sI2719
S'                parent_tagname = self.parent.tag'
p257
ssg83
S"(self=<gluon.html.web2pyHTMLParser instance>, tagname='tr')"
p258
sg85
S'handle_endtag'
p259
sasS'pyver'
p260
S'Python 2.7.6: /usr/bin/python (prefix: /System/Library/Frameworks/Python.framework/Versions/2.7)'
p261
sS'session'
p262
g57
(S's\x1a\x00\x00\x00<div><table></table></div>'
tRp263
sS'etype'
p264
S"<type 'exceptions.RuntimeError'>"
p265
sS'date'
p266
S'Thu Dec  4 03:36:51 2014'
p267
sS'response'
p268
g57
(S'sx3\x00\x00<div><table><tr><td style="font-weight:bold;vertical-align:top;">body</td><td style="vertical-align:top;">:</td><td><div>&lt;cStringIO.StringO object at 0x110d27bc8&gt;</div></td></tr><tr><td style="font-weight:bold;vertical-align:top;">cookies</td><td style="vertical-align:top;">:</td><td><div><table><tr><td style="font-weight:bold;vertical-align:top;">session_id_dining_hall_helper</td><td style="vertical-align:top;">:</td><td><div>127.0.0.1-02a41bd4-96f6-4cb2-b511-f42d166690e7<table><tr><td style="font-weight:bold;vertical-align:top;">comment</td><td style="vertical-align:top;">:</td><td><div></div></td></tr><tr><td style="font-weight:bold;vertical-align:top;">domain</td><td style="vertical-align:top;">:</td><td><div></div></td></tr><tr><td style="font-weight:bold;vertical-align:top;">expires</td><td style="vertical-align:top;">:</td><td><div></div></td></tr><tr><td style="font-weight:bold;vertical-align:top;">httponly</td><td style="vertical-align:top;">:</td><td><div></div></td></tr><tr><td style="font-weight:bold;vertical-align:top;">max-age</td><td style="vertical-align:top;">:</td><td><div></div></td></tr><tr><td style="font-weight:bold;vertical-align:top;">path</td><td style="vertical-align:top;">:</td><td><div>/</div></td></tr><tr><td style="font-weight:bold;vertical-align:top;">secure</td><td style="vertical-align:top;">:</td><td><div></div></td></tr><tr><td style="font-weight:bold;vertical-align:top;">version</td><td style="vertical-align:top;">:</td><td><div></div></td></tr></table></div></td></tr></table></div></td></tr><tr><td style="font-weight:bold;vertical-align:top;">delimiters</td><td style="vertical-align:top;">:</td><td><div><table><tr><td><div>{{</div></td></tr><tr><td><div>}}</div></td></tr></table></div></td></tr><tr><td style="font-weight:bold;vertical-align:top;">files</td><td style="vertical-align:top;">:</td><td><div><table></table></div></td></tr><tr><td style="font-weight:bold;vertical-align:top;">flash</td><td style="vertical-align:top;">:</td><td><div></div></td></tr><tr><td style="font-weight:bold;vertical-align:top;">form_label_separator</td><td style="vertical-align:top;">:</td><td><div>: </div></td></tr><tr><td style="font-weight:bold;vertical-align:top;">formstyle</td><td style="vertical-align:top;">:</td><td><div>table3cols</div></td></tr><tr><td style="font-weight:bold;vertical-align:top;">generic_patterns</td><td style="vertical-align:top;">:</td><td><div><table><tr><td><div>*</div></td></tr></table></div></td></tr><tr><td style="font-weight:bold;vertical-align:top;">google_analytics_id</td><td style="vertical-align:top;">:</td><td><div>None</div></td></tr><tr><td style="font-weight:bold;vertical-align:top;">headers</td><td style="vertical-align:top;">:</td><td><div><table><tr><td style="font-weight:bold;vertical-align:top;">X-Powered-By</td><td style="vertical-align:top;">:</td><td><div>web2py</div></td></tr></table></div></td></tr><tr><td style="font-weight:bold;vertical-align:top;">logo</td><td style="vertical-align:top;">:</td><td><div><a class="brand" href="http://www.web2py.com/"><b>web<span>2</span>py</b>&trade;&nbsp;</a></div></td></tr><tr><td style="font-weight:bold;vertical-align:top;">menu</td><td style="vertical-align:top;">:</td><td><div><table><tr><td><div><table><tr><td><div>Home</div></td></tr><tr><td><div>False</div></td></tr><tr><td><div>/dining_hall_helper/default/index</div></td></tr><tr><td><div><table></table></div></td></tr></table></div></td></tr><tr><td><div><table><tr><td><div><span class="highlighted">web2py</span></div></td></tr><tr><td><div>False</div></td></tr><tr><td><div>http://web2py.com</div></td></tr><tr><td><div><table><tr><td><div><table><tr><td><div>My Sites</div></td></tr><tr><td><div>False</div></td></tr><tr><td><div>/admin/default/site</div></td></tr></table></div></td></tr><tr><td><div><table><tr><td><div>This App</div></td></tr><tr><td><div>False</div></td></tr><tr><td><div>/admin/default/design/dining_hall_helper</div></td></tr><tr><td><div>[(&lt;lazyT &#x27;Controller&#x27;&gt;, False, &#x27;/admin/default/edit/dining_hall_helper/controllers/default.py&#x27;), (&lt;lazyT &#x27;View&#x27;&gt;, False, &#x27;/admin/default/edit/dining_hall_helper/views/default/scrape.html&#x27;), (&lt;lazyT &#x27;Layout&#x27;&gt;, False, &#x27;/admin/default/edit/dining_hall_helper/views/layout.html&#x27;), (&lt;lazyT &#x27;Stylesheet&#x27;&gt;, False, &#x27;/admin/default/edit/dining_hall_helper/static/css/web2py.css&#x27;), (&lt;lazyT &#x27;DB Model&#x27;&gt;, False, &#x27;/admin/default/edit/dining_hall_helper/models/db.py&#x27;), (&lt;lazyT &#x27;Menu Model&#x27;&gt;, False, &#x27;/admin/default/edit/dining_hall_helper/models/menu.py&#x27;), (&lt;lazyT &#x27;Database&#x27;&gt;, False, &#x27;/dining_hall_helper/appadmin/index&#x27;), (&lt;lazyT &#x27;Errors&#x27;&gt;, False, &#x27;/admin/default/errors/dining_hall_helper&#x27;), (&lt;lazyT &#x27;About&#x27;&gt;, False, &#x27;/admin/default/about/dining_hall_helper&#x27;)]</div></td></tr></table></div></td></tr><tr><td><div><table><tr><td><div>web2py.com</div></td></tr><tr><td><div>False</div></td></tr><tr><td><div>http://www.web2py.com</div></td></tr><tr><td><div>[(&lt;lazyT &#x27;Download&#x27;&gt;, False, &#x27;http://www.web2py.com/examples/default/download&#x27;), (&lt;lazyT &#x27;Support&#x27;&gt;, False, &#x27;http://www.web2py.com/examples/default/support&#x27;), (&lt;lazyT &#x27;Demo&#x27;&gt;, False, &#x27;http://web2py.com/demo_admin&#x27;), (&lt;lazyT &#x27;Quick Examples&#x27;&gt;, False, &#x27;http://web2py.com/examples/default/examples&#x27;), (&lt;lazyT &#x27;FAQ&#x27;&gt;, False, &#x27;http://web2py.com/AlterEgo&#x27;), (&lt;lazyT &#x27;Videos&#x27;&gt;, False, &#x27;http://www.web2py.com/examples/default/videos/&#x27;), (&lt;lazyT &#x27;Free Applications&#x27;&gt;, False, &#x27;http://web2py.com/appliances&#x27;), (&lt;lazyT &#x27;Plugins&#x27;&gt;, False, &#x27;http://web2py.com/plugins&#x27;), (&lt;lazyT &#x27;Layouts&#x27;&gt;, False, &#x27;http://web2py.com/layouts&#x27;), (&lt;lazyT &#x27;Recipes&#x27;&gt;, False, &#x27;http://web2pyslices.com/&#x27;), (&lt;lazyT &#x27;Semantic&#x27;&gt;, False, &#x27;http://web2py.com/semantic&#x27;)]</div></td></tr></table></div></td></tr><tr><td><div><table><tr><td><div>Documentation</div></td></tr><tr><td><div>False</div></td></tr><tr><td><div>http://www.web2py.com/book</div></td></tr><tr><td><div>[(&lt;lazyT &#x27;Preface&#x27;&gt;, False, &#x27;http://www.web2py.com/book/default/chapter/00&#x27;), (&lt;lazyT &#x27;Introduction&#x27;&gt;, False, &#x27;http://www.web2py.com/book/default/chapter/01&#x27;), (&lt;lazyT &#x27;Python&#x27;&gt;, False, &#x27;http://www.web2py.com/book/default/chapter/02&#x27;), (&lt;lazyT &#x27;Overview&#x27;&gt;, False, &#x27;http://www.web2py.com/book/default/chapter/03&#x27;), (&lt;lazyT &#x27;The Core&#x27;&gt;, False, &#x27;http://www.web2py.com/book/default/chapter/04&#x27;), (&lt;lazyT &#x27;The Views&#x27;&gt;, False, &#x27;http://www.web2py.com/book/default/chapter/05&#x27;), (&lt;lazyT &#x27;Database&#x27;&gt;, False, &#x27;http://www.web2py.com/book/default/chapter/06&#x27;), (&lt;lazyT &#x27;Forms and Validators&#x27;&gt;, False, &#x27;http://www.web2py.com/book/default/chapter/07&#x27;), (&lt;lazyT &#x27;Email and SMS&#x27;&gt;, False, &#x27;http://www.web2py.com/book/default/chapter/08&#x27;), (&lt;lazyT &#x27;Access Control&#x27;&gt;, False, &#x27;http://www.web2py.com/book/default/chapter/09&#x27;), (&lt;lazyT &#x27;Services&#x27;&gt;, False, &#x27;http://www.web2py.com/book/default/chapter/10&#x27;), (&lt;lazyT &#x27;Ajax Recipes&#x27;&gt;, False, &#x27;http://www.web2py.com/book/default/chapter/11&#x27;), (&lt;lazyT &#x27;Components and Plugins&#x27;&gt;, False, &#x27;http://www.web2py.com/book/default/chapter/12&#x27;), (&lt;lazyT &#x27;Deployment Recipes&#x27;&gt;, False, &#x27;http://www.web2py.com/book/default/chapter/13&#x27;), (&lt;lazyT &#x27;Other Recipes&#x27;&gt;, False, &#x27;http://www.web2py.com/book/default/chapter/14&#x27;), (&lt;lazyT &#x27;Buy this book&#x27;&gt;, False, &#x27;http://stores.lulu.com/web2py&#x27;)]</div></td></tr></table></div></td></tr><tr><td><div><table><tr><td><div>Community</div></td></tr><tr><td><div>False</div></td></tr><tr><td><div>None</div></td></tr><tr><td><div>[(&lt;lazyT &#x27;Groups&#x27;&gt;, False, &#x27;http://www.web2py.com/examples/default/usergroups&#x27;), (&lt;lazyT &#x27;Twitter&#x27;&gt;, False, &#x27;http://twitter.com/web2py&#x27;), (&lt;lazyT &#x27;Live Chat&#x27;&gt;, False, &#x27;http://webchat.freenode.net/?channels=web2py&#x27;)]</div></td></tr></table></div></td></tr><tr><td><div><table><tr><td><div>Plugins</div></td></tr><tr><td><div>False</div></td></tr><tr><td><div>None</div></td></tr><tr><td><div>[(&#x27;plugin_wiki&#x27;, False, &#x27;http://web2py.com/examples/default/download&#x27;), (&lt;lazyT &#x27;Other Plugins&#x27;&gt;, False, &#x27;http://web2py.com/plugins&#x27;), (&lt;lazyT &#x27;Layout Plugins&#x27;&gt;, False, &#x27;http://web2py.com/layouts&#x27;)]</div></td></tr></table></div></td></tr></table></div></td></tr></table></div></td></tr></table></div></td></tr><tr><td style="font-weight:bold;vertical-align:top;">meta</td><td style="vertical-align:top;">:</td><td><div><table><tr><td style="font-weight:bold;vertical-align:top;">author</td><td style="vertical-align:top;">:</td><td><div>Your Name &lt;you@example.com&gt;</div></td></tr><tr><td style="font-weight:bold;vertical-align:top;">generator</td><td style="vertical-align:top;">:</td><td><div>Web2py Web Framework</div></td></tr><tr><td style="font-weight:bold;vertical-align:top;">keywords</td><td style="vertical-align:top;">:</td><td><div>web2py, python, framework</div></td></tr></table></div></td></tr><tr><td style="font-weight:bold;vertical-align:top;">models_to_run</td><td style="vertical-align:top;">:</td><td><div><table><tr><td><div>^\\w+\\.py$</div></td></tr><tr><td><div>^default/\\w+\\.py$</div></td></tr><tr><td><div>^default/scrape/\\w+\\.py$</div></td></tr></table></div></td></tr><tr><td style="font-weight:bold;vertical-align:top;">postprocessing</td><td style="vertical-align:top;">:</td><td><div><table></table></div></td></tr><tr><td style="font-weight:bold;vertical-align:top;">session_client</td><td style="vertical-align:top;">:</td><td><div>127.0.0.1</div></td></tr><tr><td style="font-weight:bold;vertical-align:top;">session_cookie_compression_level</td><td style="vertical-align:top;">:</td><td><div>None</div></td></tr><tr><td style="font-weight:bold;vertical-align:top;">session_cookie_expires</td><td style="vertical-align:top;">:</td><td><div>None</div></td></tr><tr><td style="font-weight:bold;vertical-align:top;">session_cookie_key</td><td style="vertical-align:top;">:</td><td><div>None</div></td></tr><tr><td style="font-weight:bold;vertical-align:top;">session_data_name</td><td style="vertical-align:top;">:</td><td><div>session_data_dining_hall_helper</div></td></tr><tr><td style="font-weight:bold;vertical-align:top;">session_file</td><td style="vertical-align:top;">:</td><td><div>&lt;open file &#x27;/Users/patrickmathieu/Documents/web2py/applications/dining_hall_helper/sessions/090/0ec/127.0.0.1-02a41bd4-96f6-4cb2-b511-f42d166690e7&#x27;, mode &#x27;rb+&#x27; at 0x110bc2390&gt;</div></td></tr><tr><td style="font-weight:bold;vertical-align:top;">session_filename</td><td style="vertical-align:top;">:</td><td><div>/Users/patrickmathieu/Documents/web2py/applications/dining_hall_helper/sessions/127.0.0.1-02a41bd4-96f6-4cb2-b511-f42d166690e7</div></td></tr><tr><td style="font-weight:bold;vertical-align:top;">session_hash</td><td style="vertical-align:top;">:</td><td><div>f467dc44cd0ced7ea9c236982b078432</div></td></tr><tr><td style="font-weight:bold;vertical-align:top;">session_id</td><td style="vertical-align:top;">:</td><td><div>127.0.0.1-02a41bd4-96f6-4cb2-b511-f42d166690e7</div></td></tr><tr><td style="font-weight:bold;vertical-align:top;">session_id_name</td><td style="vertical-align:top;">:</td><td><div>session_id_dining_hall_helper</div></td></tr><tr><td style="font-weight:bold;vertical-align:top;">session_locked</td><td style="vertical-align:top;">:</td><td><div>True</div></td></tr><tr><td style="font-weight:bold;vertical-align:top;">session_masterapp</td><td style="vertical-align:top;">:</td><td><div>dining_hall_helper</div></td></tr><tr><td style="font-weight:bold;vertical-align:top;">session_new</td><td style="vertical-align:top;">:</td><td><div>False</div></td></tr><tr><td style="font-weight:bold;vertical-align:top;">session_storage_type</td><td style="vertical-align:top;">:</td><td><div>file</div></td></tr><tr><td style="font-weight:bold;vertical-align:top;">status</td><td style="vertical-align:top;">:</td><td><div>200</div></td></tr><tr><td style="font-weight:bold;vertical-align:top;">subtitle</td><td style="vertical-align:top;">:</td><td><div></div></td></tr><tr><td style="font-weight:bold;vertical-align:top;">title</td><td style="vertical-align:top;">:</td><td><div>Dining Hall Helper</div></td></tr><tr><td style="font-weight:bold;vertical-align:top;">view</td><td style="vertical-align:top;">:</td><td><div>default/scrape.html</div></td></tr></table></div>'
tRp269
sS'locals'
p270
(dp271
S'self'
p272
S'<gluon.html.web2pyHTMLParser instance>'
p273
sS'tagname'
p274
S"'tr'"
p275
sS'parent_tagname'
p276
S"''"
p277
sssS'traceback'
p278
S'Traceback (most recent call last):\n  File "/Users/patrickmathieu/Documents/web2py/gluon/restricted.py", line 224, in restricted\n    exec ccode in environment\n  File "/Users/patrickmathieu/Documents/web2py/applications/dining_hall_helper/controllers/default.py", line 137, in <module>\n  File "/Users/patrickmathieu/Documents/web2py/gluon/globals.py", line 392, in <lambda>\n    self._caller = lambda f: f()\n  File "/Users/patrickmathieu/Documents/web2py/applications/dining_hall_helper/controllers/default.py", line 132, in scrape\n    page = TAG(html.text)\n  File "/Users/patrickmathieu/Documents/web2py/gluon/html.py", line 1288, in __call__\n    return web2pyHTMLParser(decoder.decoder(html)).tree\n  File "/Users/patrickmathieu/Documents/web2py/gluon/html.py", line 2678, in __init__\n    self.feed(text)\n  File "/System/Library/Frameworks/Python.framework/Versions/2.7/lib/python2.7/HTMLParser.py", line 114, in feed\n    self.goahead(0)\n  File "/System/Library/Frameworks/Python.framework/Versions/2.7/lib/python2.7/HTMLParser.py", line 160, in goahead\n    k = self.parse_endtag(i)\n  File "/System/Library/Frameworks/Python.framework/Versions/2.7/lib/python2.7/HTMLParser.py", line 398, in parse_endtag\n    self.handle_endtag(elem)\n  File "/Users/patrickmathieu/Documents/web2py/gluon/html.py", line 2722, in handle_endtag\n    raise RuntimeError("unable to balance tag %s" % tagname)\nRuntimeError: unable to balance tag tr\n'
p279
s.